; Function Attrs: mustprogress nofree norecurse nosync nounwind willreturn memory(read, inaccessiblemem: none) uwtable
define { ptr, i32 } @_ZNK10OpenSubdiv6v3_6_03Far10PatchTable23GetPatchArrayFVarValuesEii(ptr nocapture noundef nonnull readonly align 8 dereferenceable(273) %0, i32 noundef %1, i32 noundef %2) local_unnamed_addr #6 align 2 {
  %4 = getelementptr inbounds nuw i8, ptr %0, i64 8
  %5 = sext i32 %1 to i64
  %6 = load ptr, ptr %4, align 8
  %7 = getelementptr inbounds %"struct.OpenSubdiv::v3_6_0::Far::PatchTable::PatchArray", ptr %6, i64 %5
  %8 = getelementptr inbounds nuw i8, ptr %0, i64 176
  %9 = sext i32 %2 to i64
  %10 = load ptr, ptr %8, align 8
  %11 = getelementptr inbounds %"struct.OpenSubdiv::v3_6_0::Far::PatchTable::FVarPatchChannel", ptr %10, i64 %9
  %12 = getelementptr inbounds nuw i8, ptr %11, i64 12
  %13 = load i32, ptr %12, align 4
  %14 = getelementptr inbounds nuw i8, ptr %7, i64 12
  %15 = load i32, ptr %14, align 4
  %16 = mul nsw i32 %15, %13
  %17 = getelementptr inbounds nuw i8, ptr %7, i64 4
  %18 = load i32, ptr %17, align 4
  %19 = mul nsw i32 %18, %13
  %20 = getelementptr inbounds nuw i8, ptr %11, i64 16
  %21 = sext i32 %16 to i64
  %22 = load ptr, ptr %20, align 8
  %23 = getelementptr inbounds i32, ptr %22, i64 %21
  %.fca.0.insert = insertvalue { ptr, i32 } poison, ptr %23, 0
  %.fca.1.insert = insertvalue { ptr, i32 } %.fca.0.insert, i32 %19, 1
  ret { ptr, i32 } %.fca.1.insert
}